ccopy_reg
_reconstructor
p1
(csklearn.feature_extraction.text
TfidfTransformer
p2
c__builtin__
object
p3
NtRp4
(dp5
S'use_idf'
p6
I00
sS'smooth_idf'
p7
I01
sS'sublinear_tf'
p8
I00
sS'norm'
p9
Vl2
p10
sb.